Certificate:
    Data:
        Version: 3 (0x2)
        Serial Number: 2 (0x2)
    Signature Algorithm: sha1WithRSAEncryption
        Issuer: C=SE, ST=Vastra Gotalands Lan, L=Gothenburg, O=vahebi, OU=changeme, CN=factorio.vahebi.se/name=server/emailAddress=root@factorio.vahebi.se
        Validity
            Not Before: May 25 14:29:41 2019 GMT
            Not After : May 22 14:29:41 2029 GMT
        Subject: C=SE, ST=Vastra Gotalands Lan, L=Gothenburg, O=vahebi, OU=changeme, CN=client1/name=server/emailAddress=root@factorio.vahebi.se
        Subject Public Key Info:
            Public Key Algorithm: rsaEncryption
                Public-Key: (4096 bit)
                Modulus:
                    00:cb:f0:a0:f4:b9:f5:6d:a0:40:03:10:ef:9c:e7:
                    b7:13:6c:e2:06:57:24:26:8f:98:95:79:0d:1e:8c:
                    52:ec:e3:7f:21:72:6c:91:10:5c:19:e4:f8:0f:37:
                    a0:2b:8b:aa:a9:4f:0b:dd:b0:8e:6a:4b:a4:f6:2b:
                    dd:2f:5d:69:04:1e:b0:1a:7f:b3:3c:12:52:62:33:
                    70:da:89:c8:21:77:90:43:6a:ae:47:7f:3d:91:63:
                    42:d5:70:04:bc:e6:4b:be:a1:4f:24:eb:72:9c:fb:
                    a3:be:c6:c3:ea:f2:58:4d:46:e7:0e:8d:7e:2c:fc:
                    8d:a0:ae:43:60:7d:9d:04:89:8e:92:5d:ed:99:7c:
                    de:3c:ab:9d:e2:75:c9:48:76:bc:7c:73:88:af:6a:
                    de:3e:b7:11:1d:3b:61:b5:cf:e1:d0:ee:cd:1a:c6:
                    2c:57:71:20:8f:36:e3:0f:50:9f:bd:05:29:07:cf:
                    bd:7f:98:bd:59:e8:e1:81:99:cc:8e:b3:47:f4:ea:
                    4c:45:ba:54:8b:2a:6e:6d:2a:79:46:07:05:80:87:
                    01:35:99:c2:56:ae:d1:f8:29:22:57:6d:d1:c4:3a:
                    5b:36:11:00:c4:e3:e7:2e:54:87:4d:0e:7a:0f:17:
                    ab:6d:13:9a:bb:49:a8:f6:d4:d5:39:d2:24:d2:47:
                    a0:bd:95:0c:97:71:29:63:dc:11:7b:d6:c6:d8:77:
                    77:84:fe:bd:00:6e:aa:95:76:06:3a:7c:fa:3a:31:
                    46:c2:7a:32:87:52:de:72:02:00:c1:95:a2:fa:f0:
                    a9:b2:75:a2:05:21:bb:62:76:57:1b:e6:dd:39:01:
                    73:bc:ea:81:af:5c:b5:97:19:88:4b:7c:1b:b9:9f:
                    49:76:6f:a2:b8:f3:b4:92:fd:7c:03:54:83:0f:15:
                    81:9d:6f:53:72:09:93:aa:f3:06:c4:f8:ec:87:cf:
                    ff:45:f0:3a:8f:57:1b:da:0e:f5:db:34:ea:a1:e8:
                    aa:91:df:86:12:0b:5e:4e:49:f0:68:74:0d:0c:46:
                    f5:59:ec:04:09:d6:24:60:7c:2b:26:7b:3a:d6:6a:
                    c4:07:29:1c:75:31:40:00:b2:72:aa:3a:eb:28:d1:
                    71:69:08:e9:b4:d8:09:07:d5:73:8c:b2:e4:e5:bb:
                    41:e6:83:7a:06:2b:f0:a9:21:e0:c1:05:3d:3d:f5:
                    3d:59:1b:75:dc:80:ea:6c:74:97:3a:46:07:96:df:
                    d0:d5:51:7d:82:d8:f9:59:35:60:4a:24:fd:50:b8:
                    ea:4a:5c:db:c6:26:15:33:9c:b0:e9:9c:e2:09:41:
                    cf:34:44:40:52:7a:db:6f:da:55:9a:18:7b:f0:9a:
                    d4:a5:a9
                Exponent: 65537 (0x10001)
        X509v3 extensions:
            X509v3 Basic Constraints: 
                CA:FALSE
            Netscape Comment: 
                Easy-RSA Generated Certificate
            X509v3 Subject Key Identifier: 
                32:BB:16:D0:D3:DE:05:B8:2A:BB:19:3D:C3:05:18:9E:E3:D2:7C:C1
            X509v3 Authority Key Identifier: 
                keyid:D2:50:43:0B:00:C5:2E:CC:BA:39:93:5B:D2:5D:05:0F:23:7C:0C:61
                DirName:/C=SE/ST=Vastra Gotalands Lan/L=Gothenburg/O=vahebi/OU=changeme/CN=factorio.vahebi.se/name=server/emailAddress=root@factorio.vahebi.se
                serial:85:7B:D9:56:79:C4:85:55

            X509v3 Extended Key Usage: 
                TLS Web Client Authentication
            X509v3 Key Usage: 
                Digital Signature
    Signature Algorithm: sha1WithRSAEncryption
         39:76:0a:23:08:0e:c3:a0:53:9c:32:26:04:0b:53:6e:c3:2b:
         9e:f5:44:b6:00:a6:2d:56:f4:f5:5c:bd:a9:81:18:9c:b6:01:
         26:52:ee:42:33:a6:e1:1a:6d:c1:5e:63:4a:6b:7c:2b:7f:fe:
         21:40:8c:ea:65:41:39:6b:17:9f:8f:2c:4a:8d:4b:48:83:e6:
         b7:10:ef:47:46:a9:64:a6:7c:10:9e:45:e2:92:95:2e:14:f5:
         d9:1a:a2:f6:f3:df:6b:b2:6e:3d:00:f0:eb:6d:0b:55:37:58:
         9c:7d:c3:f4:4c:90:3c:b2:8f:74:c3:2c:f7:b9:4c:bd:6d:4d:
         38:92:51:b7:6d:ad:a7:ec:7b:46:e8:42:ef:f9:60:eb:8a:db:
         2f:ae:4d:72:08:98:5d:8c:6e:92:5f:e5:30:ee:57:d2:72:f1:
         be:09:d9:3a:fd:a6:4f:5f:69:b1:94:4c:d9:37:f4:52:9a:79:
         23:e6:9a:f5:f8:04:5d:11:6c:61:9a:c0:3e:ab:15:71:73:08:
         79:67:8a:cf:44:7b:b6:61:3c:b9:c8:ad:0b:96:48:9c:06:5d:
         77:94:97:20:09:76:85:aa:ec:2c:70:10:ae:70:b5:19:3c:8e:
         48:1d:f3:80:7f:54:ab:9c:00:37:03:9c:a5:ba:64:68:93:ad:
         e8:82:fd:f9:09:58:fc:11:c5:d7:a9:7b:ad:e0:f0:eb:14:72:
         55:fb:77:7e:26:3e:b9:ff:9d:60:82:a4:81:22:16:f8:3e:5c:
         43:2b:fc:ee:a4:78:28:2b:fa:c3:e8:40:66:6a:81:9b:ea:0e:
         6f:fe:07:98:f1:fa:ca:8e:dd:c5:86:a5:ec:da:82:25:f7:a1:
         b7:b3:69:c1:bc:ec:a2:d2:0e:8d:a4:6c:60:d1:e2:e3:ab:a3:
         ae:c3:fc:ef:4c:98:af:1f:9f:4b:b9:84:09:0e:bb:29:98:0f:
         a1:7f:bf:4f:0e:cd:63:8b:cb:36:40:04:bc:d0:d8:78:93:8b:
         4b:d6:2c:31:a6:e9:74:a2:12:2c:6d:25:65:7a:f5:fe:17:cf:
         42:94:6d:39:42:f7:74:05:05:31:cb:02:10:67:ff:63:a9:27:
         79:89:4a:07:59:bd:a8:6e:07:1f:5c:ef:04:39:c2:41:42:e7:
         8f:18:18:67:c2:01:9e:68:72:7b:c7:55:11:84:96:f9:06:26:
         33:8b:1a:61:68:6e:6a:ab:00:e8:88:81:46:17:b6:4f:f9:f5:
         5d:e0:fc:f5:81:30:7b:23:90:d2:e7:19:a8:3a:42:f3:38:f3:
         67:a1:f0:d2:c8:1d:86:4d:7b:f8:cf:28:40:38:07:7f:70:51:
         39:8f:1d:6a:79:0d:fb:1a
-----BEGIN CERTIFICATE-----
MIIHXDCCBUSgAwIBAgIBAjANBgkqhkiG9w0BAQUFADCBuzELMAkGA1UEBhMCU0Ux
HTAbBgNVBAgTFFZhc3RyYSBHb3RhbGFuZHMgTGFuMRMwEQYDVQQHEwpHb3RoZW5i
dXJnMQ8wDQYDVQQKEwZ2YWhlYmkxETAPBgNVBAsTCGNoYW5nZW1lMRswGQYDVQQD
ExJmYWN0b3Jpby52YWhlYmkuc2UxDzANBgNVBCkTBnNlcnZlcjEmMCQGCSqGSIb3
DQEJARYXcm9vdEBmYWN0b3Jpby52YWhlYmkuc2UwHhcNMTkwNTI1MTQyOTQxWhcN
MjkwNTIyMTQyOTQxWjCBsDELMAkGA1UEBhMCU0UxHTAbBgNVBAgTFFZhc3RyYSBH
b3RhbGFuZHMgTGFuMRMwEQYDVQQHEwpHb3RoZW5idXJnMQ8wDQYDVQQKEwZ2YWhl
YmkxETAPBgNVBAsTCGNoYW5nZW1lMRAwDgYDVQQDEwdjbGllbnQxMQ8wDQYDVQQp
EwZzZXJ2ZXIxJjAkBgkqhkiG9w0BCQEWF3Jvb3RAZmFjdG9yaW8udmFoZWJpLnNl
MIICIjANBgkqhkiG9w0BAQEFAAOCAg8AMIICCgKCAgEAy/Cg9Ln1baBAAxDvnOe3
E2ziBlckJo+YlXkNHoxS7ON/IXJskRBcGeT4DzegK4uqqU8L3bCOakuk9ivdL11p
BB6wGn+zPBJSYjNw2onIIXeQQ2quR389kWNC1XAEvOZLvqFPJOtynPujvsbD6vJY
TUbnDo1+LPyNoK5DYH2dBImOkl3tmXzePKud4nXJSHa8fHOIr2rePrcRHTthtc/h
0O7NGsYsV3EgjzbjD1CfvQUpB8+9f5i9WejhgZnMjrNH9OpMRbpUiypubSp5RgcF
gIcBNZnCVq7R+CkiV23RxDpbNhEAxOPnLlSHTQ56DxerbROau0mo9tTVOdIk0keg
vZUMl3EpY9wRe9bG2Hd3hP69AG6qlXYGOnz6OjFGwnoyh1LecgIAwZWi+vCpsnWi
BSG7YnZXG+bdOQFzvOqBr1y1lxmIS3wbuZ9Jdm+iuPO0kv18A1SDDxWBnW9TcgmT
qvMGxPjsh8//RfA6j1cb2g712zTqoeiqkd+GEgteTknwaHQNDEb1WewECdYkYHwr
Jns61mrEBykcdTFAALJyqjrrKNFxaQjptNgJB9VzjLLk5btB5oN6BivwqSHgwQU9
PfU9WRt13IDqbHSXOkYHlt/Q1VF9gtj5WTVgSiT9ULjqSlzbxiYVM5yw6ZziCUHP
NERAUnrbb9pVmhh78JrUpakCAwEAAaOCAXIwggFuMAkGA1UdEwQCMAAwLQYJYIZI
AYb4QgENBCAWHkVhc3ktUlNBIEdlbmVyYXRlZCBDZXJ0aWZpY2F0ZTAdBgNVHQ4E
FgQUMrsW0NPeBbgquxk9wwUYnuPSfMEwgfAGA1UdIwSB6DCB5YAU0lBDCwDFLsy6
OZNb0l0FDyN8DGGhgcGkgb4wgbsxCzAJBgNVBAYTAlNFMR0wGwYDVQQIExRWYXN0
cmEgR290YWxhbmRzIExhbjETMBEGA1UEBxMKR290aGVuYnVyZzEPMA0GA1UEChMG
dmFoZWJpMREwDwYDVQQLEwhjaGFuZ2VtZTEbMBkGA1UEAxMSZmFjdG9yaW8udmFo
ZWJpLnNlMQ8wDQYDVQQpEwZzZXJ2ZXIxJjAkBgkqhkiG9w0BCQEWF3Jvb3RAZmFj
dG9yaW8udmFoZWJpLnNlggkAhXvZVnnEhVUwEwYDVR0lBAwwCgYIKwYBBQUHAwIw
CwYDVR0PBAQDAgeAMA0GCSqGSIb3DQEBBQUAA4ICAQA5dgojCA7DoFOcMiYEC1Nu
wyue9US2AKYtVvT1XL2pgRictgEmUu5CM6bhGm3BXmNKa3wrf/4hQIzqZUE5axef
jyxKjUtIg+a3EO9HRqlkpnwQnkXikpUuFPXZGqL2899rsm49APDrbQtVN1icfcP0
TJA8so90wyz3uUy9bU04klG3ba2n7HtG6ELv+WDritsvrk1yCJhdjG6SX+Uw7lfS
cvG+Cdk6/aZPX2mxlEzZN/RSmnkj5pr1+ARdEWxhmsA+qxVxcwh5Z4rPRHu2YTy5
yK0LlkicBl13lJcgCXaFquwscBCucLUZPI5IHfOAf1SrnAA3A5ylumRok63ogv35
CVj8EcXXqXut4PDrFHJV+3d+Jj65/51ggqSBIhb4PlxDK/zupHgoK/rD6EBmaoGb
6g5v/geY8frKjt3FhqXs2oIl96G3s2nBvOyi0g6NpGxg0eLjq6Ouw/zvTJivH59L
uYQJDrspmA+hf79PDs1ji8s2QAS80Nh4k4tL1iwxpul0ohIsbSVlevX+F89ClG05
Qvd0BQUxywIQZ/9jqSd5iUoHWb2obgcfXO8EOcJBQuePGBhnwgGeaHJ7x1URhJb5
BiYzixphaG5qqwDoiIFGF7ZP+fVd4Pz1gTB7I5DS5xmoOkLzOPNnofDSyB2GTXv4
zyhAOAd/cFE5jx1qeQ37Gg==
-----END CERTIFICATE-----
