Certificate:
    Data:
        Version: 3 (0x2)
        Serial Number: 3 (0x3)
    Signature Algorithm: sha1WithRSAEncryption
        Issuer: C=SE, ST=Vastra Gotalands Lan, L=Gothenburg, O=vahebi, OU=changeme, CN=factorio.vahebi.se/name=server/emailAddress=root@factorio.vahebi.se
        Validity
            Not Before: May 25 14:29:55 2019 GMT
            Not After : May 22 14:29:55 2029 GMT
        Subject: C=SE, ST=Vastra Gotalands Lan, L=Gothenburg, O=vahebi, OU=changeme, CN=client2/name=server/emailAddress=root@factorio.vahebi.se
        Subject Public Key Info:
            Public Key Algorithm: rsaEncryption
                Public-Key: (4096 bit)
                Modulus:
                    00:b5:62:06:cb:d2:29:3e:74:12:1c:80:d0:4a:9a:
                    86:2c:1e:27:0a:52:35:5e:35:77:08:dc:7e:48:33:
                    9b:f9:41:d6:d7:75:4f:ea:7a:c7:d0:e0:7b:e7:b9:
                    6c:51:16:69:2c:67:21:60:65:9c:61:c2:c3:0f:dc:
                    0b:ca:7a:b1:0d:78:d2:f1:cb:b9:28:25:92:3d:4e:
                    5c:36:78:73:62:bb:43:e5:15:58:bc:a1:d4:7e:25:
                    2c:f6:d6:38:d2:b6:51:c1:77:b3:2d:90:34:bc:fa:
                    25:a2:8d:dc:80:10:87:97:8f:c1:96:09:44:73:cf:
                    18:55:50:00:bf:65:6e:3f:38:a1:f2:7c:f1:eb:fb:
                    95:c9:7d:2b:2c:78:50:0c:5b:1f:91:22:e8:39:bb:
                    8e:de:ad:3c:0d:96:c4:17:7a:e2:db:d3:7a:74:4f:
                    ab:64:d7:19:6e:9f:d5:31:65:30:97:1c:a8:fb:fa:
                    7e:08:bf:6a:07:67:3e:b9:d1:66:d3:7c:9e:c8:4e:
                    7e:cf:41:d1:35:20:2c:a0:98:68:03:d1:00:4e:4d:
                    d5:e3:62:f6:15:6e:41:97:e3:ec:fe:cc:cb:be:06:
                    f4:4c:59:0f:56:0f:83:aa:fe:76:b4:83:2d:37:c4:
                    5a:1c:73:6c:74:65:b9:55:54:bd:07:35:dc:36:32:
                    56:e5:38:20:a4:4f:8b:f1:aa:93:8d:4c:c7:01:c3:
                    22:0c:87:23:d2:9f:a2:a0:c0:55:64:0f:b0:23:ae:
                    06:a8:25:95:9f:49:64:f2:d7:18:37:d0:f5:65:e3:
                    96:65:3e:ed:77:9d:31:e9:79:de:14:aa:92:75:92:
                    77:30:2f:cb:52:44:4f:06:5c:b7:62:01:6a:cd:15:
                    8f:68:11:d4:3c:c0:a0:64:4a:ca:3e:db:96:f7:d5:
                    e9:df:47:a2:b3:eb:a8:89:2d:b7:4c:ee:71:8b:6c:
                    47:b3:45:38:e6:f0:1a:3a:97:55:8e:d7:41:e9:a1:
                    eb:84:40:1d:60:39:26:a0:d4:7b:31:94:f2:66:72:
                    de:48:bb:53:39:07:44:51:8d:1b:7d:d1:d4:7b:d5:
                    46:16:27:de:38:cb:4a:c2:e2:e8:89:c5:be:d5:66:
                    0a:48:36:80:17:88:99:41:17:c8:6e:cf:7f:dd:69:
                    c1:31:d9:87:5b:85:cc:94:a7:33:fa:8a:ae:a1:3f:
                    1b:6f:0a:51:01:5d:cb:26:6e:8f:27:e0:4d:8a:1a:
                    25:b7:cb:37:ab:f2:76:b3:1d:5d:3e:6d:fc:09:e1:
                    36:ff:8b:d4:ad:32:0e:ca:83:b8:c9:23:e9:d6:61:
                    f4:0d:50:5f:9f:2d:83:89:fa:ef:bd:7d:0f:09:84:
                    fd:6f:b7
                Exponent: 65537 (0x10001)
        X509v3 extensions:
            X509v3 Basic Constraints: 
                CA:FALSE
            Netscape Comment: 
                Easy-RSA Generated Certificate
            X509v3 Subject Key Identifier: 
                A2:63:74:92:CA:5D:45:90:6E:AD:5F:69:A6:31:1B:A3:49:09:9E:FC
            X509v3 Authority Key Identifier: 
                keyid:D2:50:43:0B:00:C5:2E:CC:BA:39:93:5B:D2:5D:05:0F:23:7C:0C:61
                DirName:/C=SE/ST=Vastra Gotalands Lan/L=Gothenburg/O=vahebi/OU=changeme/CN=factorio.vahebi.se/name=server/emailAddress=root@factorio.vahebi.se
                serial:85:7B:D9:56:79:C4:85:55

            X509v3 Extended Key Usage: 
                TLS Web Client Authentication
            X509v3 Key Usage: 
                Digital Signature
    Signature Algorithm: sha1WithRSAEncryption
         54:2f:e8:a9:f8:4b:5a:e1:e9:08:cb:c9:9f:21:55:1d:f1:46:
         48:0d:7a:51:4d:af:9b:09:9a:c9:b2:c1:98:0f:2b:72:9c:5d:
         47:11:f0:79:f3:bb:c1:c6:d8:c8:ca:2c:92:be:65:86:cd:ee:
         7b:93:59:23:a1:be:9d:47:2d:2d:04:af:57:85:49:1b:40:75:
         f7:f0:e6:f2:8d:94:03:57:ac:a6:47:bc:c9:ef:9a:fd:ec:0b:
         c4:10:d8:c3:48:95:07:3c:5b:f6:c7:14:b1:d1:d6:98:10:f5:
         ef:70:e3:f8:7f:cd:e4:27:57:8a:0d:6d:6e:7d:07:e2:62:b6:
         03:ff:c8:86:38:e9:3b:5c:61:55:be:31:e1:8a:53:61:05:d9:
         ae:f3:e2:c3:f8:63:d4:05:89:d4:98:eb:0a:f9:b7:95:af:3a:
         f3:ed:89:9f:61:ef:b5:a1:26:34:0f:73:92:55:d5:fb:b3:08:
         db:e8:47:58:ff:13:ca:85:9d:8c:94:f9:fe:20:a6:4b:2d:a4:
         cb:be:66:e2:77:05:2a:60:32:bf:ae:37:89:0c:e9:bb:ba:ab:
         1f:63:a6:75:d6:35:36:a9:37:69:0d:b2:52:fa:76:86:78:86:
         14:00:7f:03:d8:c6:21:a0:cc:7f:c7:7a:4a:55:0d:29:60:a2:
         e7:0c:b0:f9:92:80:a1:de:8a:96:58:d2:6a:23:f4:8b:29:0d:
         9a:14:22:4f:1a:4a:7f:0f:f3:19:ad:a6:e2:15:06:da:2b:07:
         11:19:d4:f7:0e:1f:da:4b:54:e2:97:cb:8f:ab:91:d9:6c:d6:
         ed:46:a1:34:e8:b9:9f:b3:b9:2c:14:6a:4d:25:24:7b:bf:65:
         6d:c7:5c:31:eb:07:b4:21:dd:b7:54:53:3e:06:f3:bf:cc:62:
         aa:04:2d:a5:93:19:2b:8d:51:f3:71:29:46:f9:14:67:fd:30:
         b3:93:19:84:c9:3e:8b:82:34:56:49:cf:13:b7:e0:55:ad:40:
         6f:4a:96:ed:fb:6b:e6:16:3c:32:bf:7b:1a:0c:b5:cf:fb:09:
         8f:bb:6a:a1:38:f0:5a:ea:00:d3:88:0e:d0:a4:d2:74:12:87:
         15:fd:33:ee:22:5b:77:72:d3:1a:00:c9:d4:8b:85:f5:f6:86:
         6c:0e:27:f6:1f:fd:43:9b:13:c3:39:3d:3e:c1:97:53:3f:0f:
         28:ee:8f:5e:15:b6:69:4b:b1:35:70:35:8c:7f:e7:21:16:74:
         9a:73:ea:dc:ab:59:3c:46:60:0c:9b:da:72:1b:80:fd:3a:39:
         cc:50:48:85:6f:60:b0:bc:45:0f:5e:af:e1:97:41:b4:ff:f1:
         03:34:15:4f:04:5f:d9:32
-----BEGIN CERTIFICATE-----
MIIHXDCCBUSgAwIBAgIBAzANBgkqhkiG9w0BAQUFADCBuzELMAkGA1UEBhMCU0Ux
HTAbBgNVBAgTFFZhc3RyYSBHb3RhbGFuZHMgTGFuMRMwEQYDVQQHEwpHb3RoZW5i
dXJnMQ8wDQYDVQQKEwZ2YWhlYmkxETAPBgNVBAsTCGNoYW5nZW1lMRswGQYDVQQD
ExJmYWN0b3Jpby52YWhlYmkuc2UxDzANBgNVBCkTBnNlcnZlcjEmMCQGCSqGSIb3
DQEJARYXcm9vdEBmYWN0b3Jpby52YWhlYmkuc2UwHhcNMTkwNTI1MTQyOTU1WhcN
MjkwNTIyMTQyOTU1WjCBsDELMAkGA1UEBhMCU0UxHTAbBgNVBAgTFFZhc3RyYSBH
b3RhbGFuZHMgTGFuMRMwEQYDVQQHEwpHb3RoZW5idXJnMQ8wDQYDVQQKEwZ2YWhl
YmkxETAPBgNVBAsTCGNoYW5nZW1lMRAwDgYDVQQDEwdjbGllbnQyMQ8wDQYDVQQp
EwZzZXJ2ZXIxJjAkBgkqhkiG9w0BCQEWF3Jvb3RAZmFjdG9yaW8udmFoZWJpLnNl
MIICIjANBgkqhkiG9w0BAQEFAAOCAg8AMIICCgKCAgEAtWIGy9IpPnQSHIDQSpqG
LB4nClI1XjV3CNx+SDOb+UHW13VP6nrH0OB757lsURZpLGchYGWcYcLDD9wLynqx
DXjS8cu5KCWSPU5cNnhzYrtD5RVYvKHUfiUs9tY40rZRwXezLZA0vPoloo3cgBCH
l4/BlglEc88YVVAAv2VuPzih8nzx6/uVyX0rLHhQDFsfkSLoObuO3q08DZbEF3ri
29N6dE+rZNcZbp/VMWUwlxyo+/p+CL9qB2c+udFm03yeyE5+z0HRNSAsoJhoA9EA
Tk3V42L2FW5Bl+Ps/szLvgb0TFkPVg+Dqv52tIMtN8RaHHNsdGW5VVS9BzXcNjJW
5TggpE+L8aqTjUzHAcMiDIcj0p+ioMBVZA+wI64GqCWVn0lk8tcYN9D1ZeOWZT7t
d50x6XneFKqSdZJ3MC/LUkRPBly3YgFqzRWPaBHUPMCgZErKPtuW99Xp30eis+uo
iS23TO5xi2xHs0U45vAaOpdVjtdB6aHrhEAdYDkmoNR7MZTyZnLeSLtTOQdEUY0b
fdHUe9VGFifeOMtKwuLoicW+1WYKSDaAF4iZQRfIbs9/3WnBMdmHW4XMlKcz+oqu
oT8bbwpRAV3LJm6PJ+BNiholt8s3q/J2sx1dPm38CeE2/4vUrTIOyoO4ySPp1mH0
DVBfny2DifrvvX0PCYT9b7cCAwEAAaOCAXIwggFuMAkGA1UdEwQCMAAwLQYJYIZI
AYb4QgENBCAWHkVhc3ktUlNBIEdlbmVyYXRlZCBDZXJ0aWZpY2F0ZTAdBgNVHQ4E
FgQUomN0kspdRZBurV9ppjEbo0kJnvwwgfAGA1UdIwSB6DCB5YAU0lBDCwDFLsy6
OZNb0l0FDyN8DGGhgcGkgb4wgbsxCzAJBgNVBAYTAlNFMR0wGwYDVQQIExRWYXN0
cmEgR290YWxhbmRzIExhbjETMBEGA1UEBxMKR290aGVuYnVyZzEPMA0GA1UEChMG
dmFoZWJpMREwDwYDVQQLEwhjaGFuZ2VtZTEbMBkGA1UEAxMSZmFjdG9yaW8udmFo
ZWJpLnNlMQ8wDQYDVQQpEwZzZXJ2ZXIxJjAkBgkqhkiG9w0BCQEWF3Jvb3RAZmFj
dG9yaW8udmFoZWJpLnNlggkAhXvZVnnEhVUwEwYDVR0lBAwwCgYIKwYBBQUHAwIw
CwYDVR0PBAQDAgeAMA0GCSqGSIb3DQEBBQUAA4ICAQBUL+ip+Eta4ekIy8mfIVUd
8UZIDXpRTa+bCZrJssGYDytynF1HEfB587vBxtjIyiySvmWGze57k1kjob6dRy0t
BK9XhUkbQHX38ObyjZQDV6ymR7zJ75r97AvEENjDSJUHPFv2xxSx0daYEPXvcOP4
f83kJ1eKDW1ufQfiYrYD/8iGOOk7XGFVvjHhilNhBdmu8+LD+GPUBYnUmOsK+beV
rzrz7YmfYe+1oSY0D3OSVdX7swjb6EdY/xPKhZ2MlPn+IKZLLaTLvmbidwUqYDK/
rjeJDOm7uqsfY6Z11jU2qTdpDbJS+naGeIYUAH8D2MYhoMx/x3pKVQ0pYKLnDLD5
koCh3oqWWNJqI/SLKQ2aFCJPGkp/D/MZrabiFQbaKwcRGdT3Dh/aS1Til8uPq5HZ
bNbtRqE06Lmfs7ksFGpNJSR7v2Vtx1wx6we0Id23VFM+BvO/zGKqBC2lkxkrjVHz
cSlG+RRn/TCzkxmEyT6LgjRWSc8Tt+BVrUBvSpbt+2vmFjwyv3saDLXP+wmPu2qh
OPBa6gDTiA7QpNJ0EocV/TPuIlt3ctMaAMnUi4X19oZsDif2H/1DmxPDOT0+wZdT
Pw8o7o9eFbZpS7E1cDWMf+chFnSac+rcq1k8RmAMm9pyG4D9OjnMUEiFb2CwvEUP
Xq/hl0G0//EDNBVPBF/ZMg==
-----END CERTIFICATE-----
