Certificate:
    Data:
        Version: 3 (0x2)
        Serial Number: 2 (0x2)
    Signature Algorithm: sha1WithRSAEncryption
        Issuer: C=SE, ST=Vastra Gotalands Lan, L=Gothenburg, O=vahebi, OU=changeme, CN=factorio.vahebi.se/name=factorio/emailAddress=root@factorio.vahebi.se
        Validity
            Not Before: May 25 15:42:57 2019 GMT
            Not After : May 22 15:42:57 2029 GMT
        Subject: C=SE, ST=Vastra Gotalands Lan, L=Gothenburg, O=vahebi, OU=changeme, CN=client/name=factorio/emailAddress=root@factorio.vahebi.se
        Subject Public Key Info:
            Public Key Algorithm: rsaEncryption
                Public-Key: (4096 bit)
                Modulus:
                    00:a4:ff:57:dc:23:b0:05:80:50:33:4e:b7:35:ab:
                    07:c6:ad:7d:dd:05:1b:85:d0:59:f8:d9:be:1e:82:
                    ef:ec:dd:d8:d8:6a:8d:86:b0:80:45:a4:5a:0d:59:
                    0c:ae:10:66:77:6f:6d:21:6c:ce:26:1b:96:dd:d0:
                    a6:a2:c8:54:cf:77:99:8b:19:dd:75:f0:86:df:1d:
                    14:21:f5:34:8d:35:59:50:96:eb:ef:8d:21:c4:c8:
                    17:2b:21:a5:f0:82:a5:56:b8:4b:1d:2c:44:10:39:
                    25:eb:5e:11:dd:d2:c9:f0:90:f7:6e:04:ed:e9:5c:
                    4f:e4:d3:b3:89:2d:74:ee:97:82:d6:91:2f:29:04:
                    37:76:c9:06:56:e3:6c:94:e8:8d:7d:4e:ec:16:06:
                    d0:52:25:ed:4d:cc:f6:d3:11:ed:5b:12:57:c7:5d:
                    81:fb:a5:7b:86:5f:07:f1:f1:8d:a0:f7:cd:4d:ae:
                    b0:c3:c4:ae:ad:83:3f:77:2c:c8:f1:36:23:72:18:
                    25:7d:81:82:0a:44:28:fb:bd:f9:aa:ba:89:b1:15:
                    69:94:50:df:b8:b7:83:92:8e:5f:38:67:14:e2:2a:
                    b9:08:16:50:c5:4c:f0:2a:02:de:88:fa:ad:f1:e1:
                    fc:09:7b:43:82:99:55:6d:92:44:ec:41:29:bd:1c:
                    95:ff:b2:14:70:86:22:e1:3d:1b:c1:49:02:1e:b9:
                    d1:8b:0a:e6:c9:02:84:a3:ec:ba:17:c0:71:36:77:
                    7a:41:3f:66:3d:a3:54:d1:9a:18:9d:fd:07:98:b8:
                    0d:98:9c:1c:3f:ff:73:f3:16:7f:96:1a:aa:08:6f:
                    32:aa:94:76:8b:13:08:16:e1:86:ab:6c:ab:2f:2b:
                    9d:77:c7:cf:c1:bc:df:f5:08:64:3d:6a:4c:fa:fa:
                    7e:5d:f7:73:ba:5e:b3:78:53:50:be:44:84:01:60:
                    d9:d4:a9:c3:f9:49:ee:e1:20:01:8a:8e:0c:fe:21:
                    29:98:54:ae:de:14:98:e9:e1:15:b8:c5:f3:38:03:
                    2b:80:51:5c:dd:42:f4:af:97:ce:79:cc:c5:1c:d0:
                    b3:94:84:db:1a:1b:4e:7b:92:37:93:e3:fe:22:84:
                    61:fb:11:dd:4d:d2:72:79:49:17:10:a8:45:e0:63:
                    e0:5d:9d:ee:d0:fb:e8:95:af:ba:7b:21:b4:ff:54:
                    b7:00:ed:35:85:2c:7f:72:10:fc:46:fb:4d:60:56:
                    a3:e6:34:0f:fd:0c:42:5c:46:6b:18:93:68:20:85:
                    ab:a1:7b:0f:d5:a2:29:c1:3b:87:ea:81:c7:08:87:
                    77:3d:b4:8e:e3:e1:af:6b:0e:e7:b5:b6:a1:c2:c8:
                    8f:16:03
                Exponent: 65537 (0x10001)
        X509v3 extensions:
            X509v3 Basic Constraints: 
                CA:FALSE
            Netscape Comment: 
                Easy-RSA Generated Certificate
            X509v3 Subject Key Identifier: 
                6D:DD:FB:51:9D:04:75:24:2B:A9:AF:29:75:6A:CB:B8:C3:61:F8:A9
            X509v3 Authority Key Identifier: 
                keyid:66:83:86:C2:4B:3D:3D:C4:AA:57:24:73:5E:92:82:27:6E:66:9E:E8
                DirName:/C=SE/ST=Vastra Gotalands Lan/L=Gothenburg/O=vahebi/OU=changeme/CN=factorio.vahebi.se/name=factorio/emailAddress=root@factorio.vahebi.se
                serial:AB:73:69:7D:18:6F:5A:10

            X509v3 Extended Key Usage: 
                TLS Web Client Authentication
            X509v3 Key Usage: 
                Digital Signature
    Signature Algorithm: sha1WithRSAEncryption
         dd:3e:30:4c:2b:b6:c9:c1:64:60:d9:4d:d3:f0:b4:51:14:59:
         6b:a2:55:d3:c2:99:b9:b0:d4:0c:d8:81:d3:f9:fa:60:a2:16:
         89:99:df:07:61:56:86:e4:cb:0a:24:87:a3:22:49:a1:7d:10:
         01:81:19:33:73:9e:e7:5e:9c:c3:79:50:76:2c:ae:f1:37:b9:
         dd:c7:d4:f4:a9:4a:4e:22:3b:d0:15:4d:5e:23:1e:94:67:4e:
         c6:dc:59:92:e1:5f:37:bc:75:9d:0c:93:23:88:72:dc:ec:43:
         49:18:0e:da:f2:db:6d:b1:de:85:42:fe:ac:01:b0:1f:36:06:
         e4:cb:f8:fe:01:5c:74:68:f7:68:0a:5a:b9:2e:b9:69:f1:6d:
         13:65:7d:8f:93:20:d1:d2:9e:78:41:10:2c:39:a7:f5:cf:4e:
         8f:d1:75:61:c6:40:c1:50:49:2b:5d:6d:3d:1b:15:d2:4d:41:
         c6:81:b5:f9:c7:33:d7:11:f6:93:3e:ff:73:8e:3d:cb:09:5f:
         78:9e:f8:0a:69:5c:a0:66:6a:c1:38:7d:8f:27:9b:39:95:b2:
         94:79:eb:94:21:71:64:80:94:38:30:8f:11:39:75:b8:9e:02:
         01:27:52:b1:b8:ed:c6:94:25:df:33:5e:05:7d:92:7d:b4:6f:
         49:c2:6b:5b:a7:d3:23:c1:fd:d5:92:de:f1:8c:58:cf:b5:56:
         8b:6d:4e:f4:26:de:ff:d3:e3:76:97:a3:14:e6:8c:3d:b6:f8:
         53:69:23:c9:ba:f3:ad:68:76:e7:c4:d2:3d:84:57:45:c9:29:
         c4:5c:fc:04:63:ff:db:70:ad:cd:1d:64:52:d5:a8:dc:8c:ea:
         36:cb:0c:c1:14:f8:e6:79:36:24:df:bc:b8:45:2c:ae:0c:03:
         02:c4:57:92:40:1b:b1:29:14:59:ba:f7:46:4e:65:51:44:2a:
         45:e9:a4:4f:89:49:34:5f:8e:a4:47:4c:80:63:5a:6c:93:db:
         d8:e3:f6:4a:97:8c:78:96:d2:78:ae:00:46:80:ec:b1:af:b0:
         da:88:85:0b:40:82:d0:e0:b0:3f:31:15:38:56:13:2c:8f:30:
         df:94:80:d8:17:11:ec:32:27:dc:8f:02:6f:29:46:40:7f:a8:
         61:3b:b9:7c:71:bf:6c:7b:bc:00:7b:d1:ec:f9:bd:5e:da:01:
         44:25:90:f0:c1:1a:a8:b3:73:5d:fb:e7:03:aa:ca:39:b1:54:
         56:e4:ac:44:08:ac:f7:18:98:d7:c8:18:8a:29:66:0d:df:ae:
         0a:5f:76:f5:6a:3a:0b:a3:c2:9a:c3:65:d2:fc:7a:33:f4:84:
         25:5a:de:37:2b:3d:25:50
-----BEGIN CERTIFICATE-----
MIIHYTCCBUmgAwIBAgIBAjANBgkqhkiG9w0BAQUFADCBvTELMAkGA1UEBhMCU0Ux
HTAbBgNVBAgTFFZhc3RyYSBHb3RhbGFuZHMgTGFuMRMwEQYDVQQHEwpHb3RoZW5i
dXJnMQ8wDQYDVQQKEwZ2YWhlYmkxETAPBgNVBAsTCGNoYW5nZW1lMRswGQYDVQQD
ExJmYWN0b3Jpby52YWhlYmkuc2UxETAPBgNVBCkTCGZhY3RvcmlvMSYwJAYJKoZI
hvcNAQkBFhdyb290QGZhY3RvcmlvLnZhaGViaS5zZTAeFw0xOTA1MjUxNTQyNTda
Fw0yOTA1MjIxNTQyNTdaMIGxMQswCQYDVQQGEwJTRTEdMBsGA1UECBMUVmFzdHJh
IEdvdGFsYW5kcyBMYW4xEzARBgNVBAcTCkdvdGhlbmJ1cmcxDzANBgNVBAoTBnZh
aGViaTERMA8GA1UECxMIY2hhbmdlbWUxDzANBgNVBAMTBmNsaWVudDERMA8GA1UE
KRMIZmFjdG9yaW8xJjAkBgkqhkiG9w0BCQEWF3Jvb3RAZmFjdG9yaW8udmFoZWJp
LnNlMIICIjANBgkqhkiG9w0BAQEFAAOCAg8AMIICCgKCAgEApP9X3COwBYBQM063
NasHxq193QUbhdBZ+Nm+HoLv7N3Y2GqNhrCARaRaDVkMrhBmd29tIWzOJhuW3dCm
oshUz3eZixnddfCG3x0UIfU0jTVZUJbr740hxMgXKyGl8IKlVrhLHSxEEDkl614R
3dLJ8JD3bgTt6VxP5NOziS107peC1pEvKQQ3dskGVuNslOiNfU7sFgbQUiXtTcz2
0xHtWxJXx12B+6V7hl8H8fGNoPfNTa6ww8SurYM/dyzI8TYjchglfYGCCkQo+735
qrqJsRVplFDfuLeDko5fOGcU4iq5CBZQxUzwKgLeiPqt8eH8CXtDgplVbZJE7EEp
vRyV/7IUcIYi4T0bwUkCHrnRiwrmyQKEo+y6F8BxNnd6QT9mPaNU0ZoYnf0HmLgN
mJwcP/9z8xZ/lhqqCG8yqpR2ixMIFuGGq2yrLyudd8fPwbzf9QhkPWpM+vp+Xfdz
ul6zeFNQvkSEAWDZ1KnD+Unu4SABio4M/iEpmFSu3hSY6eEVuMXzOAMrgFFc3UL0
r5fOeczFHNCzlITbGhtOe5I3k+P+IoRh+xHdTdJyeUkXEKhF4GPgXZ3u0Pvola+6
eyG0/1S3AO01hSx/chD8RvtNYFaj5jQP/QxCXEZrGJNoIIWroXsP1aIpwTuH6oHH
CId3PbSO4+Gvaw7ntbahwsiPFgMCAwEAAaOCAXQwggFwMAkGA1UdEwQCMAAwLQYJ
YIZIAYb4QgENBCAWHkVhc3ktUlNBIEdlbmVyYXRlZCBDZXJ0aWZpY2F0ZTAdBgNV
HQ4EFgQUbd37UZ0EdSQrqa8pdWrLuMNh+KkwgfIGA1UdIwSB6jCB54AUZoOGwks9
PcSqVyRzXpKCJ25mnuihgcOkgcAwgb0xCzAJBgNVBAYTAlNFMR0wGwYDVQQIExRW
YXN0cmEgR290YWxhbmRzIExhbjETMBEGA1UEBxMKR290aGVuYnVyZzEPMA0GA1UE
ChMGdmFoZWJpMREwDwYDVQQLEwhjaGFuZ2VtZTEbMBkGA1UEAxMSZmFjdG9yaW8u
dmFoZWJpLnNlMREwDwYDVQQpEwhmYWN0b3JpbzEmMCQGCSqGSIb3DQEJARYXcm9v
dEBmYWN0b3Jpby52YWhlYmkuc2WCCQCrc2l9GG9aEDATBgNVHSUEDDAKBggrBgEF
BQcDAjALBgNVHQ8EBAMCB4AwDQYJKoZIhvcNAQEFBQADggIBAN0+MEwrtsnBZGDZ
TdPwtFEUWWuiVdPCmbmw1AzYgdP5+mCiFomZ3wdhVobkywokh6MiSaF9EAGBGTNz
nudenMN5UHYsrvE3ud3H1PSpSk4iO9AVTV4jHpRnTsbcWZLhXze8dZ0MkyOIctzs
Q0kYDtry222x3oVC/qwBsB82BuTL+P4BXHRo92gKWrkuuWnxbRNlfY+TINHSnnhB
ECw5p/XPTo/RdWHGQMFQSStdbT0bFdJNQcaBtfnHM9cR9pM+/3OOPcsJX3ie+App
XKBmasE4fY8nmzmVspR565QhcWSAlDgwjxE5dbieAgEnUrG47caUJd8zXgV9kn20
b0nCa1un0yPB/dWS3vGMWM+1VottTvQm3v/T43aXoxTmjD22+FNpI8m6861odufE
0j2EV0XJKcRc/ARj/9twrc0dZFLVqNyM6jbLDMEU+OZ5NiTfvLhFLK4MAwLEV5JA
G7EpFFm690ZOZVFEKkXppE+JSTRfjqRHTIBjWmyT29jj9kqXjHiW0niuAEaA7LGv
sNqIhQtAgtDgsD8xFThWEyyPMN+UgNgXEewyJ9yPAm8pRkB/qGE7uXxxv2x7vAB7
0ez5vV7aAUQlkPDBGqizc1375wOqyjmxVFbkrEQIrPcYmNfIGIopZg3frgpfdvVq
OgujwprDZdL8ejP0hCVa3jcrPSVQ
-----END CERTIFICATE-----
