Certificate:
    Data:
        Version: 3 (0x2)
        Serial Number: 1 (0x1)
    Signature Algorithm: sha1WithRSAEncryption
        Issuer: C=SE, ST=Vastra Gotalands Lan, L=Gothenburg, O=vahebi, OU=changeme, CN=factorio.vahebi.se/name=factorio/emailAddress=root@factorio.vahebi.se
        Validity
            Not Before: May 25 15:42:05 2019 GMT
            Not After : May 22 15:42:05 2029 GMT
        Subject: C=SE, ST=Vastra Gotalands Lan, L=Gothenburg, O=vahebi, OU=changeme, CN=server/name=factorio/emailAddress=root@factorio.vahebi.se
        Subject Public Key Info:
            Public Key Algorithm: rsaEncryption
                Public-Key: (4096 bit)
                Modulus:
                    00:cd:31:43:d7:85:dd:18:02:cf:2c:94:47:e6:d4:
                    28:c5:58:74:bc:9d:1b:f2:15:2e:13:49:32:00:2c:
                    4a:d0:5a:83:ee:18:03:02:fb:e2:2d:7d:2f:48:51:
                    16:55:e0:75:2d:ae:d4:93:dd:08:b6:25:9e:42:07:
                    6d:ff:fa:21:61:04:d2:9b:3e:69:dd:25:5f:6f:ae:
                    21:16:d4:f8:63:a4:44:bc:33:f4:ac:ef:b4:32:ee:
                    17:71:3b:ea:d9:1e:eb:4f:92:04:2e:d1:21:76:12:
                    4d:d9:22:25:0a:4e:2c:a7:bc:a8:f4:c5:e2:bd:ac:
                    62:d8:b1:d0:82:0f:26:9f:00:8d:63:42:8f:ff:b8:
                    d7:fd:0e:1f:f0:47:ed:d9:01:d6:a7:ad:1c:c0:8c:
                    28:c9:74:16:c1:50:0d:24:bd:fe:1a:82:06:6f:3c:
                    c7:6e:e2:4c:4e:f6:30:27:30:d7:71:45:7c:7c:db:
                    70:18:d2:45:2a:44:aa:a9:3e:d8:39:01:b1:49:2b:
                    64:31:ad:7a:d2:be:43:98:5d:4c:9e:f0:52:33:3a:
                    9c:c9:e0:86:66:4e:2f:c1:f6:44:89:93:ce:bf:e6:
                    fd:20:0b:c2:9d:db:8d:06:49:db:ab:72:fc:bc:ac:
                    b9:28:78:d1:25:13:4b:2b:9e:53:c1:1c:c7:a1:b5:
                    44:65:9b:03:53:ac:45:f5:ca:8a:b1:31:26:69:3e:
                    2e:a4:b6:d1:d4:87:e2:30:0b:79:98:2c:1b:dd:de:
                    bb:f0:d2:4e:99:3a:c7:03:9d:f9:af:e8:42:1d:a2:
                    b8:ed:1a:50:a8:0b:d7:7c:5c:b3:ef:7f:cd:58:79:
                    d9:05:d0:e9:0e:87:93:3a:f0:ef:d1:1c:8b:c3:eb:
                    16:a1:b6:1a:6c:82:79:c4:c3:a3:a5:9e:19:09:6f:
                    e3:70:d2:36:00:2a:c9:5f:b1:6c:73:18:14:c8:b6:
                    65:56:e1:4c:bc:41:3e:26:c6:c0:e1:f2:02:81:f5:
                    f3:97:bb:67:1b:85:ef:57:3c:1f:9a:76:8e:29:ce:
                    01:76:0a:8f:7a:21:99:1c:0b:d3:56:0c:91:af:2b:
                    80:4c:f7:c1:cd:c4:30:20:70:6d:b8:c1:53:25:29:
                    59:89:a7:ea:ae:b9:7c:05:db:cc:9d:a4:c1:5b:b4:
                    1d:c0:94:7c:dc:c6:38:02:da:0a:8d:dc:82:bb:b2:
                    63:ac:fe:fa:f0:1a:d1:1f:0c:f6:7f:2a:b5:ca:f7:
                    4d:91:de:2f:f5:e0:7c:3d:a6:b5:84:e9:81:57:8e:
                    9f:33:46:8f:f2:09:fd:3b:97:6b:7b:af:3c:ca:7c:
                    2e:c0:69:27:33:32:26:26:f3:4d:07:e7:2d:d6:08:
                    54:e6:8b
                Exponent: 65537 (0x10001)
        X509v3 extensions:
            X509v3 Basic Constraints: 
                CA:FALSE
            Netscape Cert Type: 
                SSL Server
            Netscape Comment: 
                Easy-RSA Generated Server Certificate
            X509v3 Subject Key Identifier: 
                0B:63:6B:47:1A:65:DD:99:CA:ED:70:12:D8:7B:CF:4C:D5:2B:3A:EF
            X509v3 Authority Key Identifier: 
                keyid:66:83:86:C2:4B:3D:3D:C4:AA:57:24:73:5E:92:82:27:6E:66:9E:E8
                DirName:/C=SE/ST=Vastra Gotalands Lan/L=Gothenburg/O=vahebi/OU=changeme/CN=factorio.vahebi.se/name=factorio/emailAddress=root@factorio.vahebi.se
                serial:AB:73:69:7D:18:6F:5A:10

            X509v3 Extended Key Usage: 
                TLS Web Server Authentication
            X509v3 Key Usage: 
                Digital Signature, Key Encipherment
    Signature Algorithm: sha1WithRSAEncryption
         dd:c7:48:91:1c:d9:03:d3:42:ed:84:70:7a:14:ac:6c:2c:5d:
         8e:0d:f7:48:cc:a1:1c:af:5b:ef:fc:40:7f:df:41:23:97:69:
         2c:96:67:a7:05:71:51:8b:81:98:7b:75:e2:34:c7:eb:11:9d:
         d5:dd:66:4a:b7:b6:1f:dd:e0:fc:c2:88:1e:eb:a4:7a:ad:74:
         04:a3:f2:f9:9e:46:e9:14:fa:88:97:1d:03:93:81:5a:df:59:
         bf:4c:bd:eb:a6:7c:ac:30:db:da:af:50:34:87:cc:5c:b2:d5:
         fb:a1:34:16:f0:be:99:f0:49:2d:0c:f2:66:d2:3a:cd:51:56:
         c6:7d:65:d0:f3:fd:8d:fd:1d:3a:0b:79:c5:bc:89:63:2a:39:
         27:d1:f8:e4:da:15:9a:59:29:04:8b:14:59:fc:8b:3f:75:57:
         82:78:04:3d:64:fc:ff:02:91:c7:0c:11:a0:44:5e:34:e6:d4:
         42:f6:e6:0a:03:d2:76:27:f3:83:22:12:f3:a4:2d:8b:a2:96:
         6e:7b:8d:db:cc:13:12:27:5f:5f:41:3e:ff:50:f7:6a:a5:17:
         5e:c0:65:51:7c:a3:28:6c:0f:e5:4d:f9:10:a9:af:5a:87:61:
         2c:b6:ed:dc:6d:39:73:5a:aa:98:14:4b:5d:d3:45:21:87:73:
         c7:d0:09:36:1c:ea:6d:bf:9a:89:1f:68:3f:4f:9a:de:d6:a8:
         a9:e7:67:f9:c6:38:bf:ce:c3:28:20:41:32:8a:16:53:38:e8:
         70:1f:26:f8:39:3c:00:55:1c:59:b9:f7:b1:94:c7:44:15:84:
         e9:0e:c0:1d:70:0d:79:5d:98:8c:02:32:dc:06:ec:86:8b:92:
         30:ae:43:16:d0:48:36:ca:73:77:4c:56:52:5b:9b:04:12:ee:
         fd:70:d0:f3:c1:ae:15:09:ee:81:a6:98:e4:49:6a:06:d2:f1:
         91:a3:02:a5:f3:36:79:31:cc:c7:df:ef:ed:ae:be:5a:92:fd:
         2a:e3:84:94:e8:f8:8c:8a:9f:83:c8:b3:cb:e0:49:1f:5c:0a:
         ef:ca:04:a5:40:e7:c4:1f:d2:37:d2:55:2b:58:f1:3b:08:f8:
         0a:ed:8d:8a:e5:85:eb:22:56:29:55:3a:7f:83:52:26:d1:45:
         75:50:1b:f3:0e:39:7f:c8:11:4b:e9:b6:95:f8:5e:b1:52:1a:
         c3:69:41:54:4b:25:a9:9e:47:d9:25:ee:a5:62:36:9f:b9:e7:
         ba:c3:04:a7:98:0e:d4:7b:c5:33:18:5d:78:b5:e4:e8:70:e9:
         8c:51:0e:7d:fb:55:b3:b4:65:96:fd:0c:12:c0:90:09:25:f0:
         88:ee:ff:ab:56:0e:bc:2a
-----BEGIN CERTIFICATE-----
MIIHezCCBWOgAwIBAgIBATANBgkqhkiG9w0BAQUFADCBvTELMAkGA1UEBhMCU0Ux
HTAbBgNVBAgTFFZhc3RyYSBHb3RhbGFuZHMgTGFuMRMwEQYDVQQHEwpHb3RoZW5i
dXJnMQ8wDQYDVQQKEwZ2YWhlYmkxETAPBgNVBAsTCGNoYW5nZW1lMRswGQYDVQQD
ExJmYWN0b3Jpby52YWhlYmkuc2UxETAPBgNVBCkTCGZhY3RvcmlvMSYwJAYJKoZI
hvcNAQkBFhdyb290QGZhY3RvcmlvLnZhaGViaS5zZTAeFw0xOTA1MjUxNTQyMDVa
Fw0yOTA1MjIxNTQyMDVaMIGxMQswCQYDVQQGEwJTRTEdMBsGA1UECBMUVmFzdHJh
IEdvdGFsYW5kcyBMYW4xEzARBgNVBAcTCkdvdGhlbmJ1cmcxDzANBgNVBAoTBnZh
aGViaTERMA8GA1UECxMIY2hhbmdlbWUxDzANBgNVBAMTBnNlcnZlcjERMA8GA1UE
KRMIZmFjdG9yaW8xJjAkBgkqhkiG9w0BCQEWF3Jvb3RAZmFjdG9yaW8udmFoZWJp
LnNlMIICIjANBgkqhkiG9w0BAQEFAAOCAg8AMIICCgKCAgEAzTFD14XdGALPLJRH
5tQoxVh0vJ0b8hUuE0kyACxK0FqD7hgDAvviLX0vSFEWVeB1La7Uk90ItiWeQgdt
//ohYQTSmz5p3SVfb64hFtT4Y6REvDP0rO+0Mu4XcTvq2R7rT5IELtEhdhJN2SIl
Ck4sp7yo9MXivaxi2LHQgg8mnwCNY0KP/7jX/Q4f8Eft2QHWp60cwIwoyXQWwVAN
JL3+GoIGbzzHbuJMTvYwJzDXcUV8fNtwGNJFKkSqqT7YOQGxSStkMa160r5DmF1M
nvBSMzqcyeCGZk4vwfZEiZPOv+b9IAvCnduNBknbq3L8vKy5KHjRJRNLK55TwRzH
obVEZZsDU6xF9cqKsTEmaT4upLbR1IfiMAt5mCwb3d678NJOmTrHA535r+hCHaK4
7RpQqAvXfFyz73/NWHnZBdDpDoeTOvDv0RyLw+sWobYabIJ5xMOjpZ4ZCW/jcNI2
ACrJX7FscxgUyLZlVuFMvEE+JsbA4fICgfXzl7tnG4XvVzwfmnaOKc4BdgqPeiGZ
HAvTVgyRryuATPfBzcQwIHBtuMFTJSlZiafqrrl8BdvMnaTBW7QdwJR83MY4AtoK
jdyCu7JjrP768BrRHwz2fyq1yvdNkd4v9eB8Paa1hOmBV46fM0aP8gn9O5dre688
ynwuwGknMzImJvNNB+ct1ghU5osCAwEAAaOCAY4wggGKMAkGA1UdEwQCMAAwEQYJ
YIZIAYb4QgEBBAQDAgZAMDQGCWCGSAGG+EIBDQQnFiVFYXN5LVJTQSBHZW5lcmF0
ZWQgU2VydmVyIENlcnRpZmljYXRlMB0GA1UdDgQWBBQLY2tHGmXdmcrtcBLYe89M
1Ss67zCB8gYDVR0jBIHqMIHngBRmg4bCSz09xKpXJHNekoInbmae6KGBw6SBwDCB
vTELMAkGA1UEBhMCU0UxHTAbBgNVBAgTFFZhc3RyYSBHb3RhbGFuZHMgTGFuMRMw
EQYDVQQHEwpHb3RoZW5idXJnMQ8wDQYDVQQKEwZ2YWhlYmkxETAPBgNVBAsTCGNo
YW5nZW1lMRswGQYDVQQDExJmYWN0b3Jpby52YWhlYmkuc2UxETAPBgNVBCkTCGZh
Y3RvcmlvMSYwJAYJKoZIhvcNAQkBFhdyb290QGZhY3RvcmlvLnZhaGViaS5zZYIJ
AKtzaX0Yb1oQMBMGA1UdJQQMMAoGCCsGAQUFBwMBMAsGA1UdDwQEAwIFoDANBgkq
hkiG9w0BAQUFAAOCAgEA3cdIkRzZA9NC7YRwehSsbCxdjg33SMyhHK9b7/xAf99B
I5dpLJZnpwVxUYuBmHt14jTH6xGd1d1mSre2H93g/MKIHuukeq10BKPy+Z5G6RT6
iJcdA5OBWt9Zv0y966Z8rDDb2q9QNIfMXLLV+6E0FvC+mfBJLQzyZtI6zVFWxn1l
0PP9jf0dOgt5xbyJYyo5J9H45NoVmlkpBIsUWfyLP3VXgngEPWT8/wKRxwwRoERe
NObUQvbmCgPSdifzgyIS86Qti6KWbnuN28wTEidfX0E+/1D3aqUXXsBlUXyjKGwP
5U35EKmvWodhLLbt3G05c1qqmBRLXdNFIYdzx9AJNhzqbb+aiR9oP0+a3taoqedn
+cY4v87DKCBBMooWUzjocB8m+Dk8AFUcWbn3sZTHRBWE6Q7AHXANeV2YjAIy3Abs
houSMK5DFtBINspzd0xWUlubBBLu/XDQ88GuFQnugaaY5ElqBtLxkaMCpfM2eTHM
x9/v7a6+WpL9KuOElOj4jIqfg8izy+BJH1wK78oEpUDnxB/SN9JVK1jxOwj4Cu2N
iuWF6yJWKVU6f4NSJtFFdVAb8w45f8gRS+m2lfhesVIaw2lBVEslqZ5H2SXupWI2
n7nnusMEp5gO1HvFMxhdeLXk6HDpjFEOfftVs7Rllv0MEsCQCSXwiO7/q1YOvCo=
-----END CERTIFICATE-----
